target datalayout = "e-m:e-p270:32:32-p271:32:32-p272:64:64-i64:64-i128:128-f80:128-n8:16:32:64-S128"
target triple = "x86_64-pc-linux-gnu"

%struct.H5O_msg_class_t = type { i32, ptr, i64, i32, ptr, ptr, ptr, ptr, ptr, ptr, ptr, ptr, ptr, ptr, ptr, ptr, ptr, ptr, ptr, ptr }

@H5O_init_g = external global i8, align 1
@H5_libterm_g = external global i8, align 1
@.str = private unnamed_addr constant [104 x i8] c"generated/home/dtcxzyw/WorkSpace/Projects/compilers/llvm-opt-benchmark/bench/hdf5/hdf5/src/H5Omessage.c\00", align 1
@H5E_OHDR_g = external global i64, align 8
@H5E_CANTCOPY_g = external global i64, align 8
@__func__.H5O__msg_copy_file = private unnamed_addr constant [19 x i8] c"H5O__msg_copy_file\00", align 1
@.str.39 = private unnamed_addr constant [45 x i8] c"unable to copy object header message to file\00", align 1

; Function Attrs: nounwind uwtable
define ptr @H5O__msg_copy_file(ptr noundef %0, ptr noundef %1, ptr noundef %2, ptr noundef %3, ptr noundef %4, ptr noundef %5, ptr noundef %6, ptr noundef %7) #0 {
  %9 = alloca ptr, align 8
  %10 = alloca ptr, align 8
  %11 = alloca ptr, align 8
  %12 = alloca ptr, align 8
  %13 = alloca ptr, align 8
  %14 = alloca ptr, align 8
  %15 = alloca ptr, align 8
  %16 = alloca ptr, align 8
  %17 = alloca ptr, align 8
  %18 = alloca i8, align 1
  store ptr %0, ptr %9, align 8, !tbaa !23
  store ptr %1, ptr %10, align 8, !tbaa !22
  store ptr %2, ptr %11, align 8, !tbaa !10
  store ptr %3, ptr %12, align 8, !tbaa !22
  store ptr %4, ptr %13, align 8, !tbaa !101
  store ptr %5, ptr %14, align 8, !tbaa !25
  store ptr %6, ptr %15, align 8, !tbaa !103
  store ptr %7, ptr %16, align 8, !tbaa !10
  call void @llvm.lifetime.start.p0(i64 8, ptr %17) #5
  store ptr null, ptr %17, align 8, !tbaa !10
  call void @llvm.lifetime.start.p0(i64 1, ptr %18) #5
  store i8 0, ptr %18, align 1, !tbaa !13
  %19 = load i8, ptr @H5O_init_g, align 1, !tbaa !13, !range !15, !noundef !16
  %20 = trunc i8 %19 to i1
  br i1 %20, label %25, label %21

21:                                               ; preds = %8
  %22 = load i8, ptr @H5_libterm_g, align 1, !tbaa !13, !range !15, !noundef !16
  %23 = trunc i8 %22 to i1
  %24 = xor i1 %23, true
  br label %25

25:                                               ; preds = %21, %8
  %26 = phi i1 [ true, %8 ], [ %24, %21 ]
  %27 = xor i1 %26, true
  %28 = xor i1 %27, true
  %29 = zext i1 %28 to i32
  %30 = sext i32 %29 to i64
  %31 = call i64 @llvm.expect.i64(i64 %30, i64 1)
  %32 = icmp ne i64 %31, 0
  br i1 %32, label %33, label %67

33:                                               ; preds = %25
  %34 = load ptr, ptr %9, align 8, !tbaa !23
  %35 = getelementptr inbounds nuw %struct.H5O_msg_class_t, ptr %34, i32 0, i32 15
  %36 = load ptr, ptr %35, align 8, !tbaa !105
  %37 = load ptr, ptr %10, align 8, !tbaa !22
  %38 = load ptr, ptr %11, align 8, !tbaa !10
  %39 = load ptr, ptr %12, align 8, !tbaa !22
  %40 = load ptr, ptr %13, align 8, !tbaa !101
  %41 = load ptr, ptr %14, align 8, !tbaa !25
  %42 = load ptr, ptr %15, align 8, !tbaa !103
  %43 = load ptr, ptr %16, align 8, !tbaa !10
  %44 = call ptr %36(ptr noundef %37, ptr noundef %38, ptr noundef %39, ptr noundef %40, ptr noundef %41, ptr noundef %42, ptr noundef %43)
  store ptr %44, ptr %17, align 8, !tbaa !10
  %45 = icmp eq ptr null, %44
  br i1 %45, label %46, label %65

46:                                               ; preds = %33
  br label %47

47:                                               ; preds = %46
  br label %48

48:                                               ; preds = %47
  br label %49

49:                                               ; preds = %48
  %50 = load i64, ptr @H5E_OHDR_g, align 8, !tbaa !17
  %51 = load i64, ptr @H5E_CANTCOPY_g, align 8, !tbaa !17
  %52 = call i32 (ptr, ptr, i32, i64, i64, ptr, ...) @H5E_printf_stack(ptr noundef @.str, ptr noundef @__func__.H5O__msg_copy_file, i32 noundef 1678, i64 noundef %50, i64 noundef %51, ptr noundef @.str.39)
  br label %53

53:                                               ; preds = %49
  br label %54

54:                                               ; preds = %53
  store i8 1, ptr %18, align 1, !tbaa !13
  %55 = load i8, ptr %18, align 1, !tbaa !13, !range !15, !noundef !16
  %56 = trunc i8 %55 to i1
  %57 = zext i1 %56 to i8
  store i8 %57, ptr %18, align 1, !tbaa !13
  br label %58

58:                                               ; preds = %54
  br label %59

59:                                               ; preds = %58
  br label %60

60:                                               ; preds = %59
  store ptr null, ptr %17, align 8, !tbaa !10
  br label %66

61:                                               ; No predecessors!
  br label %62

62:                                               ; preds = %61
  br label %63

63:                                               ; preds = %62
  br label %64

64:                                               ; preds = %63
  br label %65

65:                                               ; preds = %64, %33
  br label %66

66:                                               ; preds = %65, %60
  br label %67

67:                                               ; preds = %66, %25
  %68 = load ptr, ptr %17, align 8, !tbaa !10
  call void @llvm.lifetime.end.p0(i64 1, ptr %18) #5
  call void @llvm.lifetime.end.p0(i64 8, ptr %17) #5
  ret ptr %68
}