; Function Attrs: nounwind uwtable
define ptr @H5O__msg_copy_file(ptr noundef readonly captures(none) %0, ptr noundef %1, ptr noundef %2, ptr noundef %3, ptr noundef %4, ptr noundef %5, ptr noundef %6, ptr noundef %7) local_unnamed_addr #0 {
  %9 = load i8, ptr @H5O_init_g, align 1, !tbaa !3, !range !7, !noundef !8
  %10 = trunc nuw i8 %9 to i1
  %11 = load i8, ptr @H5_libterm_g, align 1, !range !7
  %12 = trunc nuw i8 %11 to i1
  %13 = xor i1 %12, true
  %14 = select i1 %10, i1 true, i1 %13
  br i1 %14, label %15, label %24, !prof !9

15:                                               ; preds = %8
  %16 = getelementptr inbounds nuw i8, ptr %0, i64 120
  %17 = load ptr, ptr %16, align 8, !tbaa !88
  %18 = tail call ptr %17(ptr noundef %1, ptr noundef %2, ptr noundef %3, ptr noundef %4, ptr noundef %5, ptr noundef %6, ptr noundef %7) #7
  %19 = icmp eq ptr %18, null
  br i1 %19, label %20, label %24

20:                                               ; preds = %15
  %21 = load i64, ptr @H5E_OHDR_g, align 8, !tbaa !10
  %22 = load i64, ptr @H5E_CANTCOPY_g, align 8, !tbaa !10
  %23 = tail call i32 (ptr, ptr, i32, i64, i64, ptr, ...) @H5E_printf_stack(ptr noundef nonnull @.str, ptr noundef nonnull @__func__.H5O__msg_copy_file, i32 noundef 1678, i64 noundef %21, i64 noundef %22, ptr noundef nonnull @.str.39) #7
  br label %24

24:                                               ; preds = %20, %15, %8
  %.0 = phi ptr [ null, %20 ], [ %18, %15 ], [ null, %8 ]
  ret ptr %.0
}